target datalayout = "e-m:e-p270:32:32-p271:32:32-p272:64:64-i64:64-i128:128-f80:128-n8:16:32:64-S128"
target triple = "x86_64-pc-linux-gnu"

; Function Attrs: nounwind sspstrong uwtable
define internal i32 @case_map(ptr noundef %0, ptr noundef %1, ptr noundef %2, ptr noundef %3, ptr noundef %4, ptr noundef %5) #0 {
  %7 = alloca ptr, align 8
  %8 = alloca ptr, align 8
  %9 = alloca ptr, align 8
  %10 = alloca ptr, align 8
  %11 = alloca ptr, align 8
  %12 = alloca ptr, align 8
  %13 = alloca i32, align 4
  %14 = alloca ptr, align 8
  %15 = alloca i32, align 4
  store ptr %0, ptr %7, align 8, !tbaa !23
  store ptr %1, ptr %8, align 8, !tbaa !14
  store ptr %2, ptr %9, align 8, !tbaa !16
  store ptr %3, ptr %10, align 8, !tbaa !16
  store ptr %4, ptr %11, align 8, !tbaa !16
  store ptr %5, ptr %12, align 8, !tbaa !17
  call void @llvm.lifetime.start.p0(i64 4, ptr %13) #3
  call void @llvm.lifetime.start.p0(i64 8, ptr %14) #3
  %16 = load ptr, ptr %10, align 8, !tbaa !16
  store ptr %16, ptr %14, align 8, !tbaa !16
  call void @llvm.lifetime.start.p0(i64 4, ptr %15) #3
  %17 = load ptr, ptr %7, align 8, !tbaa !23
  %18 = load i32, ptr %17, align 4, !tbaa !13
  store i32 %18, ptr %15, align 4, !tbaa !13
  br label %19

19:                                               ; preds = %175, %6
  %20 = load ptr, ptr %8, align 8, !tbaa !14
  %21 = load ptr, ptr %20, align 8, !tbaa !16
  %22 = load ptr, ptr %9, align 8, !tbaa !16
  %23 = icmp ult ptr %21, %22
  br i1 %23, label %24, label %28

24:                                               ; preds = %19
  %25 = load ptr, ptr %10, align 8, !tbaa !16
  %26 = load ptr, ptr %11, align 8, !tbaa !16
  %27 = icmp ult ptr %25, %26
  br label %28

28:                                               ; preds = %24, %19
  %29 = phi i1 [ false, %19 ], [ %27, %24 ]
  br i1 %29, label %30, label %176

30:                                               ; preds = %28
  %31 = load ptr, ptr %8, align 8, !tbaa !14
  %32 = load ptr, ptr %31, align 8, !tbaa !16
  %33 = getelementptr inbounds nuw i8, ptr %32, i32 1
  store ptr %33, ptr %31, align 8, !tbaa !16
  %34 = load i8, ptr %32, align 1, !tbaa !19
  %35 = zext i8 %34 to i32
  store i32 %35, ptr %13, align 4, !tbaa !13
  %36 = load i32, ptr %13, align 4, !tbaa !13
  %37 = icmp eq i32 %36, 223
  br i1 %37, label %38, label %62

38:                                               ; preds = %30
  %39 = load i32, ptr %15, align 4, !tbaa !13
  %40 = and i32 %39, 8192
  %41 = icmp ne i32 %40, 0
  br i1 %41, label %42, label %51

42:                                               ; preds = %38
  %43 = load i32, ptr %15, align 4, !tbaa !13
  %44 = or i32 %43, 262144
  store i32 %44, ptr %15, align 4, !tbaa !13
  %45 = load ptr, ptr %10, align 8, !tbaa !16
  %46 = getelementptr inbounds nuw i8, ptr %45, i32 1
  store ptr %46, ptr %10, align 8, !tbaa !16
  store i8 83, ptr %45, align 1, !tbaa !19
  %47 = load i32, ptr %15, align 4, !tbaa !13
  %48 = and i32 %47, 32768
  %49 = icmp ne i32 %48, 0
  %50 = select i1 %49, i32 115, i32 83
  store i32 %50, ptr %13, align 4, !tbaa !13
  br label %61

51:                                               ; preds = %38
  %52 = load i32, ptr %15, align 4, !tbaa !13
  %53 = and i32 %52, 524288
  %54 = icmp ne i32 %53, 0
  br i1 %54, label %55, label %60

55:                                               ; preds = %51
  %56 = load i32, ptr %15, align 4, !tbaa !13
  %57 = or i32 %56, 262144
  store i32 %57, ptr %15, align 4, !tbaa !13
  %58 = load ptr, ptr %10, align 8, !tbaa !16
  %59 = getelementptr inbounds nuw i8, ptr %58, i32 1
  store ptr %59, ptr %10, align 8, !tbaa !16
  store i8 115, ptr %58, align 1, !tbaa !19
  store i32 115, ptr %13, align 4, !tbaa !13
  br label %60

60:                                               ; preds = %55, %51
  br label %61

61:                                               ; preds = %60, %42
  br label %164

62:                                               ; preds = %30
  %63 = load i32, ptr %13, align 4, !tbaa !13
  %64 = zext i32 %63 to i64
  %65 = getelementptr inbounds nuw [256 x i16], ptr @EncISO_8859_14_CtypeTable, i64 0, i64 %64
  %66 = load i16, ptr %65, align 2, !tbaa !21
  %67 = zext i16 %66 to i32
  %68 = and i32 %67, 1024
  %69 = icmp ne i32 %68, 0
  br i1 %69, label %70, label %82

70:                                               ; preds = %62
  %71 = load i32, ptr %15, align 4, !tbaa !13
  %72 = and i32 %71, 540672
  %73 = icmp ne i32 %72, 0
  br i1 %73, label %74, label %82

74:                                               ; preds = %70
  %75 = load i32, ptr %15, align 4, !tbaa !13
  %76 = or i32 %75, 262144
  store i32 %76, ptr %15, align 4, !tbaa !13
  %77 = load i32, ptr %13, align 4, !tbaa !13
  %78 = zext i32 %77 to i64
  %79 = getelementptr inbounds nuw [256 x i8], ptr @EncISO_8859_14_ToLowerCaseTable, i64 0, i64 %78
  %80 = load i8, ptr %79, align 1, !tbaa !19
  %81 = zext i8 %80 to i32
  store i32 %81, ptr %13, align 4, !tbaa !13
  br label %163

82:                                               ; preds = %70, %62
  %83 = load i32, ptr %13, align 4, !tbaa !13
  %84 = zext i32 %83 to i64
  %85 = getelementptr inbounds nuw [256 x i16], ptr @EncISO_8859_14_CtypeTable, i64 0, i64 %84
  %86 = load i16, ptr %85, align 2, !tbaa !21
  %87 = zext i16 %86 to i32
  %88 = and i32 %87, 64
  %89 = icmp ne i32 %88, 0
  br i1 %89, label %90, label %162

90:                                               ; preds = %82
  %91 = load i32, ptr %15, align 4, !tbaa !13
  %92 = and i32 %91, 8192
  %93 = icmp ne i32 %92, 0
  br i1 %93, label %94, label %162

94:                                               ; preds = %90
  %95 = load i32, ptr %15, align 4, !tbaa !13
  %96 = or i32 %95, 262144
  store i32 %96, ptr %15, align 4, !tbaa !13
  %97 = load i32, ptr %13, align 4, !tbaa !13
  %98 = icmp eq i32 %97, 162
  br i1 %98, label %114, label %99

99:                                               ; preds = %94
  %100 = load i32, ptr %13, align 4, !tbaa !13
  %101 = icmp eq i32 %100, 165
  br i1 %101, label %114, label %102

102:                                              ; preds = %99
  %103 = load i32, ptr %13, align 4, !tbaa !13
  %104 = icmp eq i32 %103, 177
  br i1 %104, label %114, label %105

105:                                              ; preds = %102
  %106 = load i32, ptr %13, align 4, !tbaa !13
  %107 = icmp eq i32 %106, 179
  br i1 %107, label %114, label %108

108:                                              ; preds = %105
  %109 = load i32, ptr %13, align 4, !tbaa !13
  %110 = icmp eq i32 %109, 181
  br i1 %110, label %114, label %111

111:                                              ; preds = %108
  %112 = load i32, ptr %13, align 4, !tbaa !13
  %113 = icmp eq i32 %112, 190
  br i1 %113, label %114, label %117

114:                                              ; preds = %111, %108, %105, %102, %99, %94
  %115 = load i32, ptr %13, align 4, !tbaa !13
  %116 = sub i32 %115, 1
  store i32 %116, ptr %13, align 4, !tbaa !13
  br label %161

117:                                              ; preds = %111
  %118 = load i32, ptr %13, align 4, !tbaa !13
  %119 = icmp eq i32 %118, 171
  br i1 %119, label %120, label %123

120:                                              ; preds = %117
  %121 = load i32, ptr %13, align 4, !tbaa !13
  %122 = sub i32 %121, 5
  store i32 %122, ptr %13, align 4, !tbaa !13
  br label %160

123:                                              ; preds = %117
  %124 = load i32, ptr %13, align 4, !tbaa !13
  %125 = icmp eq i32 %124, 255
  br i1 %125, label %126, label %129

126:                                              ; preds = %123
  %127 = load i32, ptr %13, align 4, !tbaa !13
  %128 = sub i32 %127, 80
  store i32 %128, ptr %13, align 4, !tbaa !13
  br label %159

129:                                              ; preds = %123
  %130 = load i32, ptr %13, align 4, !tbaa !13
  %131 = icmp eq i32 %130, 185
  br i1 %131, label %132, label %135

132:                                              ; preds = %129
  %133 = load i32, ptr %13, align 4, !tbaa !13
  %134 = sub i32 %133, 2
  store i32 %134, ptr %13, align 4, !tbaa !13
  br label %158

135:                                              ; preds = %129
  %136 = load i32, ptr %13, align 4, !tbaa !13
  %137 = icmp eq i32 %136, 191
  br i1 %137, label %138, label %141

138:                                              ; preds = %135
  %139 = load i32, ptr %13, align 4, !tbaa !13
  %140 = sub i32 %139, 4
  store i32 %140, ptr %13, align 4, !tbaa !13
  br label %157

141:                                              ; preds = %135
  %142 = load i32, ptr %13, align 4, !tbaa !13
  %143 = icmp eq i32 %142, 184
  br i1 %143, label %150, label %144

144:                                              ; preds = %141
  %145 = load i32, ptr %13, align 4, !tbaa !13
  %146 = icmp eq i32 %145, 186
  br i1 %146, label %150, label %147

147:                                              ; preds = %144
  %148 = load i32, ptr %13, align 4, !tbaa !13
  %149 = icmp eq i32 %148, 188
  br i1 %149, label %150, label %153

150:                                              ; preds = %147, %144, %141
  %151 = load i32, ptr %13, align 4, !tbaa !13
  %152 = sub i32 %151, 16
  store i32 %152, ptr %13, align 4, !tbaa !13
  br label %156

153:                                              ; preds = %147
  %154 = load i32, ptr %13, align 4, !tbaa !13
  %155 = sub i32 %154, 32
  store i32 %155, ptr %13, align 4, !tbaa !13
  br label %156

156:                                              ; preds = %153, %150
  br label %157

157:                                              ; preds = %156, %138
  br label %158

158:                                              ; preds = %157, %132
  br label %159

159:                                              ; preds = %158, %126
  br label %160

160:                                              ; preds = %159, %120
  br label %161

161:                                              ; preds = %160, %114
  br label %162

162:                                              ; preds = %161, %90, %82
  br label %163

163:                                              ; preds = %162, %74
  br label %164

164:                                              ; preds = %163, %61
  %165 = load i32, ptr %13, align 4, !tbaa !13
  %166 = trunc i32 %165 to i8
  %167 = load ptr, ptr %10, align 8, !tbaa !16
  %168 = getelementptr inbounds nuw i8, ptr %167, i32 1
  store ptr %168, ptr %10, align 8, !tbaa !16
  store i8 %166, ptr %167, align 1, !tbaa !19
  %169 = load i32, ptr %15, align 4, !tbaa !13
  %170 = and i32 %169, 32768
  %171 = icmp ne i32 %170, 0
  br i1 %171, label %172, label %175

172:                                              ; preds = %164
  %173 = load i32, ptr %15, align 4, !tbaa !13
  %174 = xor i32 %173, 57344
  store i32 %174, ptr %15, align 4, !tbaa !13
  br label %175

175:                                              ; preds = %172, %164
  br label %19, !llvm.loop !25

176:                                              ; preds = %28
  %177 = load i32, ptr %15, align 4, !tbaa !13
  %178 = load ptr, ptr %7, align 8, !tbaa !23
  store i32 %177, ptr %178, align 4, !tbaa !13
  %179 = load ptr, ptr %10, align 8, !tbaa !16
  %180 = load ptr, ptr %14, align 8, !tbaa !16
  %181 = ptrtoint ptr %179 to i64
  %182 = ptrtoint ptr %180 to i64
  %183 = sub i64 %181, %182
  %184 = trunc i64 %183 to i32
  call void @llvm.lifetime.end.p0(i64 4, ptr %15) #3
  call void @llvm.lifetime.end.p0(i64 8, ptr %14) #3
  call void @llvm.lifetime.end.p0(i64 4, ptr %13) #3
  ret i32 %184
}