; Function Attrs: nofree norecurse nosync nounwind sspstrong memory(read, argmem: readwrite, inaccessiblemem: none) uwtable
define internal i32 @case_map(ptr noundef captures(none) %0, ptr noundef captures(none) %1, ptr noundef readnone captures(address) %2, ptr noundef %3, ptr noundef readnone captures(address) %4, ptr readnone captures(none) %5) #4 {
  %7 = load i32, ptr %0, align 4, !tbaa !14
  %8 = load ptr, ptr %1, align 8, !tbaa !6
  %9 = icmp ult ptr %8, %2
  %10 = icmp ult ptr %3, %4
  %11 = and i1 %9, %10
  br i1 %11, label %.lr.ph, label %._crit_edge

.lr.ph:                                           ; preds = %6, %52
  %12 = phi ptr [ %56, %52 ], [ %8, %6 ]
  %.078 = phi i32 [ %spec.select, %52 ], [ %7, %6 ]
  %.06277 = phi ptr [ %53, %52 ], [ %3, %6 ]
  %13 = getelementptr inbounds nuw i8, ptr %12, i64 1
  store ptr %13, ptr %1, align 8, !tbaa !6
  %14 = load i8, ptr %12, align 1, !tbaa !11
  %15 = icmp eq i8 %14, -33
  br i1 %15, label %16, label %28

16:                                               ; preds = %.lr.ph
  %17 = and i32 %.078, 8192
  %.not71 = icmp eq i32 %17, 0
  br i1 %.not71, label %23, label %18

18:                                               ; preds = %16
  %19 = or i32 %.078, 262144
  %20 = getelementptr inbounds nuw i8, ptr %.06277, i64 1
  store i8 83, ptr %.06277, align 1, !tbaa !11
  %21 = and i32 %.078, 32768
  %.not73 = icmp eq i32 %21, 0
  %22 = select i1 %.not73, i8 83, i8 115
  br label %52

23:                                               ; preds = %16
  %24 = and i32 %.078, 524288
  %.not72 = icmp eq i32 %24, 0
  br i1 %.not72, label %52, label %25

25:                                               ; preds = %23
  %26 = or i32 %.078, 262144
  %27 = getelementptr inbounds nuw i8, ptr %.06277, i64 1
  store i8 115, ptr %.06277, align 1, !tbaa !11
  br label %52

28:                                               ; preds = %.lr.ph
  %29 = zext i8 %14 to i64
  %30 = getelementptr inbounds nuw [256 x i16], ptr @EncISO_8859_14_CtypeTable, i64 0, i64 %29
  %31 = load i16, ptr %30, align 2, !tbaa !12
  %32 = and i16 %31, 1024
  %.not = icmp eq i16 %32, 0
  %33 = and i32 %.078, 540672
  %.not68 = icmp eq i32 %33, 0
  %or.cond75 = select i1 %.not, i1 true, i1 %.not68
  br i1 %or.cond75, label %38, label %34

34:                                               ; preds = %28
  %35 = or i32 %.078, 262144
  %36 = getelementptr inbounds nuw [256 x i8], ptr @EncISO_8859_14_ToLowerCaseTable, i64 0, i64 %29
  %37 = load i8, ptr %36, align 1, !tbaa !11
  br label %52

38:                                               ; preds = %28
  %39 = and i16 %31, 64
  %.not69 = icmp eq i16 %39, 0
  %40 = and i32 %.078, 8192
  %.not70 = icmp eq i32 %40, 0
  %or.cond76 = select i1 %.not69, i1 true, i1 %.not70
  br i1 %or.cond76, label %52, label %41

41:                                               ; preds = %38
  %42 = or i32 %.078, 262144
  switch i8 %14, label %50 [
    i8 -66, label %43
    i8 -75, label %43
    i8 -77, label %43
    i8 -79, label %43
    i8 -91, label %43
    i8 -94, label %43
    i8 -85, label %52
    i8 -1, label %45
    i8 -71, label %46
    i8 -65, label %47
    i8 -68, label %48
    i8 -70, label %48
    i8 -72, label %48
  ]

43:                                               ; preds = %41, %41, %41, %41, %41, %41
  %44 = add nsw i8 %14, -1
  br label %52

45:                                               ; preds = %41
  br label %52

46:                                               ; preds = %41
  br label %52

47:                                               ; preds = %41
  br label %52

48:                                               ; preds = %41, %41, %41
  %49 = add nsw i8 %14, -16
  br label %52

50:                                               ; preds = %41
  %51 = add i8 %14, -32
  br label %52

52:                                               ; preds = %41, %34, %43, %45, %47, %50, %48, %46, %38, %18, %25, %23
  %.064 = phi i8 [ %22, %18 ], [ 115, %25 ], [ -33, %23 ], [ %37, %34 ], [ %44, %43 ], [ -81, %45 ], [ -73, %46 ], [ -69, %47 ], [ %49, %48 ], [ %51, %50 ], [ %14, %38 ], [ -90, %41 ]
  %.163 = phi ptr [ %20, %18 ], [ %27, %25 ], [ %.06277, %23 ], [ %.06277, %34 ], [ %.06277, %43 ], [ %.06277, %45 ], [ %.06277, %46 ], [ %.06277, %47 ], [ %.06277, %48 ], [ %.06277, %50 ], [ %.06277, %38 ], [ %.06277, %41 ]
  %.1 = phi i32 [ %19, %18 ], [ %26, %25 ], [ %.078, %23 ], [ %35, %34 ], [ %42, %43 ], [ %42, %45 ], [ %42, %46 ], [ %42, %47 ], [ %42, %48 ], [ %42, %50 ], [ %.078, %38 ], [ %42, %41 ]
  %53 = getelementptr inbounds nuw i8, ptr %.163, i64 1
  store i8 %.064, ptr %.163, align 1, !tbaa !11
  %54 = and i32 %.1, 32768
  %.not74 = icmp eq i32 %54, 0
  %55 = xor i32 %.1, 57344
  %spec.select = select i1 %.not74, i32 %.1, i32 %55
  %56 = load ptr, ptr %1, align 8, !tbaa !6
  %57 = icmp ult ptr %56, %2
  %58 = icmp ult ptr %53, %4
  %59 = select i1 %57, i1 %58, i1 false
  br i1 %59, label %.lr.ph, label %._crit_edge, !llvm.loop !16

._crit_edge:                                      ; preds = %52, %6
  %.062.lcssa = phi ptr [ %3, %6 ], [ %53, %52 ]
  %.0.lcssa = phi i32 [ %7, %6 ], [ %spec.select, %52 ]
  store i32 %.0.lcssa, ptr %0, align 4, !tbaa !14
  %60 = ptrtoint ptr %.062.lcssa to i64
  %61 = ptrtoint ptr %3 to i64
  %62 = sub i64 %60, %61
  %63 = trunc i64 %62 to i32
  ret i32 %63
}